ARM GAS  /tmp/ccRxajMl.s 			page 1


   1              		.cpu cortex-m3
   2              		.eabi_attribute 20, 1
   3              		.eabi_attribute 21, 1
   4              		.eabi_attribute 23, 3
   5              		.eabi_attribute 24, 1
   6              		.eabi_attribute 25, 1
   7              		.eabi_attribute 26, 1
   8              		.eabi_attribute 30, 1
   9              		.eabi_attribute 34, 1
  10              		.eabi_attribute 18, 4
  11              		.file	"stm32f1xx_it.c"
  12              		.text
  13              	.Ltext0:
  14              		.cfi_sections	.debug_frame
  15              		.section	.text.NMI_Handler,"ax",%progbits
  16              		.align	1
  17              		.global	NMI_Handler
  18              		.arch armv7-m
  19              		.syntax unified
  20              		.thumb
  21              		.thumb_func
  22              		.fpu softvfp
  24              	NMI_Handler:
  25              	.LFB399:
  26              		.file 1 "app/Src/stm32f1xx_it.c"
   1:app/Src/stm32f1xx_it.c **** #include "main.h"
   2:app/Src/stm32f1xx_it.c **** #include "stm32f1xx_it.h"
   3:app/Src/stm32f1xx_it.c **** 
   4:app/Src/stm32f1xx_it.c **** #include "lcd.h"
   5:app/Src/stm32f1xx_it.c **** #include "gpio.h"
   6:app/Src/stm32f1xx_it.c **** #include "rtc.h"
   7:app/Src/stm32f1xx_it.c **** 
   8:app/Src/stm32f1xx_it.c **** uint32_t scanfcnt = 0;
   9:app/Src/stm32f1xx_it.c **** 
  10:app/Src/stm32f1xx_it.c **** extern TIM_HandleTypeDef htim3;
  11:app/Src/stm32f1xx_it.c **** extern UART_HandleTypeDef huart1;
  12:app/Src/stm32f1xx_it.c **** 
  13:app/Src/stm32f1xx_it.c **** 
  14:app/Src/stm32f1xx_it.c **** 
  15:app/Src/stm32f1xx_it.c **** void NMI_Handler(void)
  16:app/Src/stm32f1xx_it.c **** {
  27              		.loc 1 16 1 view -0
  28              		.cfi_startproc
  29              		@ args = 0, pretend = 0, frame = 0
  30              		@ frame_needed = 0, uses_anonymous_args = 0
  31              		@ link register save eliminated.
  17:app/Src/stm32f1xx_it.c ****   /* USER CODE BEGIN NonMaskableInt_IRQn 0 */
  18:app/Src/stm32f1xx_it.c **** 
  19:app/Src/stm32f1xx_it.c ****   /* USER CODE END NonMaskableInt_IRQn 0 */
  20:app/Src/stm32f1xx_it.c ****   /* USER CODE BEGIN NonMaskableInt_IRQn 1 */
  21:app/Src/stm32f1xx_it.c **** 
  22:app/Src/stm32f1xx_it.c ****   /* USER CODE END NonMaskableInt_IRQn 1 */
  23:app/Src/stm32f1xx_it.c **** }
  32              		.loc 1 23 1 view .LVU1
  33 0000 7047     		bx	lr
  34              		.cfi_endproc
  35              	.LFE399:
ARM GAS  /tmp/ccRxajMl.s 			page 2


  37              		.section	.text.HardFault_Handler,"ax",%progbits
  38              		.align	1
  39              		.global	HardFault_Handler
  40              		.syntax unified
  41              		.thumb
  42              		.thumb_func
  43              		.fpu softvfp
  45              	HardFault_Handler:
  46              	.LFB400:
  24:app/Src/stm32f1xx_it.c **** 
  25:app/Src/stm32f1xx_it.c **** /**
  26:app/Src/stm32f1xx_it.c ****   * @brief This function handles Hard fault interrupt.
  27:app/Src/stm32f1xx_it.c ****   */
  28:app/Src/stm32f1xx_it.c **** void HardFault_Handler(void)
  29:app/Src/stm32f1xx_it.c **** {
  47              		.loc 1 29 1 view -0
  48              		.cfi_startproc
  49              		@ Volatile: function does not return.
  50              		@ args = 0, pretend = 0, frame = 0
  51              		@ frame_needed = 0, uses_anonymous_args = 0
  52              		@ link register save eliminated.
  53              	.L3:
  30:app/Src/stm32f1xx_it.c ****   /* USER CODE BEGIN HardFault_IRQn 0 */
  31:app/Src/stm32f1xx_it.c **** 
  32:app/Src/stm32f1xx_it.c ****   /* USER CODE END HardFault_IRQn 0 */
  33:app/Src/stm32f1xx_it.c ****   while (1)
  54              		.loc 1 33 3 discriminator 1 view .LVU3
  34:app/Src/stm32f1xx_it.c ****   {
  35:app/Src/stm32f1xx_it.c ****     /* USER CODE BEGIN W1_HardFault_IRQn 0 */
  36:app/Src/stm32f1xx_it.c ****     /* USER CODE END W1_HardFault_IRQn 0 */
  37:app/Src/stm32f1xx_it.c ****   }
  55              		.loc 1 37 3 discriminator 1 view .LVU4
  33:app/Src/stm32f1xx_it.c ****   {
  56              		.loc 1 33 9 discriminator 1 view .LVU5
  57 0000 FEE7     		b	.L3
  58              		.cfi_endproc
  59              	.LFE400:
  61              		.section	.text.MemManage_Handler,"ax",%progbits
  62              		.align	1
  63              		.global	MemManage_Handler
  64              		.syntax unified
  65              		.thumb
  66              		.thumb_func
  67              		.fpu softvfp
  69              	MemManage_Handler:
  70              	.LFB401:
  38:app/Src/stm32f1xx_it.c **** }
  39:app/Src/stm32f1xx_it.c **** 
  40:app/Src/stm32f1xx_it.c **** /**
  41:app/Src/stm32f1xx_it.c ****   * @brief This function handles Memory management fault.
  42:app/Src/stm32f1xx_it.c ****   */
  43:app/Src/stm32f1xx_it.c **** void MemManage_Handler(void)
  44:app/Src/stm32f1xx_it.c **** {
  71              		.loc 1 44 1 view -0
  72              		.cfi_startproc
  73              		@ Volatile: function does not return.
  74              		@ args = 0, pretend = 0, frame = 0
ARM GAS  /tmp/ccRxajMl.s 			page 3


  75              		@ frame_needed = 0, uses_anonymous_args = 0
  76              		@ link register save eliminated.
  77              	.L5:
  45:app/Src/stm32f1xx_it.c ****   /* USER CODE BEGIN MemoryManagement_IRQn 0 */
  46:app/Src/stm32f1xx_it.c **** 
  47:app/Src/stm32f1xx_it.c ****   /* USER CODE END MemoryManagement_IRQn 0 */
  48:app/Src/stm32f1xx_it.c ****   while (1)
  78              		.loc 1 48 3 discriminator 1 view .LVU7
  49:app/Src/stm32f1xx_it.c ****   {
  50:app/Src/stm32f1xx_it.c ****     /* USER CODE BEGIN W1_MemoryManagement_IRQn 0 */
  51:app/Src/stm32f1xx_it.c ****     /* USER CODE END W1_MemoryManagement_IRQn 0 */
  52:app/Src/stm32f1xx_it.c ****   }
  79              		.loc 1 52 3 discriminator 1 view .LVU8
  48:app/Src/stm32f1xx_it.c ****   {
  80              		.loc 1 48 9 discriminator 1 view .LVU9
  81 0000 FEE7     		b	.L5
  82              		.cfi_endproc
  83              	.LFE401:
  85              		.section	.text.BusFault_Handler,"ax",%progbits
  86              		.align	1
  87              		.global	BusFault_Handler
  88              		.syntax unified
  89              		.thumb
  90              		.thumb_func
  91              		.fpu softvfp
  93              	BusFault_Handler:
  94              	.LFB402:
  53:app/Src/stm32f1xx_it.c **** }
  54:app/Src/stm32f1xx_it.c **** 
  55:app/Src/stm32f1xx_it.c **** /**
  56:app/Src/stm32f1xx_it.c ****   * @brief This function handles Prefetch fault, memory access fault.
  57:app/Src/stm32f1xx_it.c ****   */
  58:app/Src/stm32f1xx_it.c **** void BusFault_Handler(void)
  59:app/Src/stm32f1xx_it.c **** {
  95              		.loc 1 59 1 view -0
  96              		.cfi_startproc
  97              		@ Volatile: function does not return.
  98              		@ args = 0, pretend = 0, frame = 0
  99              		@ frame_needed = 0, uses_anonymous_args = 0
 100              		@ link register save eliminated.
 101              	.L7:
  60:app/Src/stm32f1xx_it.c ****   /* USER CODE BEGIN BusFault_IRQn 0 */
  61:app/Src/stm32f1xx_it.c **** 
  62:app/Src/stm32f1xx_it.c ****   /* USER CODE END BusFault_IRQn 0 */
  63:app/Src/stm32f1xx_it.c ****   while (1)
 102              		.loc 1 63 3 discriminator 1 view .LVU11
  64:app/Src/stm32f1xx_it.c ****   {
  65:app/Src/stm32f1xx_it.c ****     /* USER CODE BEGIN W1_BusFault_IRQn 0 */
  66:app/Src/stm32f1xx_it.c ****     /* USER CODE END W1_BusFault_IRQn 0 */
  67:app/Src/stm32f1xx_it.c ****   }
 103              		.loc 1 67 3 discriminator 1 view .LVU12
  63:app/Src/stm32f1xx_it.c ****   {
 104              		.loc 1 63 9 discriminator 1 view .LVU13
 105 0000 FEE7     		b	.L7
 106              		.cfi_endproc
 107              	.LFE402:
 109              		.section	.text.UsageFault_Handler,"ax",%progbits
ARM GAS  /tmp/ccRxajMl.s 			page 4


 110              		.align	1
 111              		.global	UsageFault_Handler
 112              		.syntax unified
 113              		.thumb
 114              		.thumb_func
 115              		.fpu softvfp
 117              	UsageFault_Handler:
 118              	.LFB403:
  68:app/Src/stm32f1xx_it.c **** }
  69:app/Src/stm32f1xx_it.c **** 
  70:app/Src/stm32f1xx_it.c **** /**
  71:app/Src/stm32f1xx_it.c ****   * @brief This function handles Undefined instruction or illegal state.
  72:app/Src/stm32f1xx_it.c ****   */
  73:app/Src/stm32f1xx_it.c **** void UsageFault_Handler(void)
  74:app/Src/stm32f1xx_it.c **** {
 119              		.loc 1 74 1 view -0
 120              		.cfi_startproc
 121              		@ Volatile: function does not return.
 122              		@ args = 0, pretend = 0, frame = 0
 123              		@ frame_needed = 0, uses_anonymous_args = 0
 124              		@ link register save eliminated.
 125              	.L9:
  75:app/Src/stm32f1xx_it.c ****   /* USER CODE BEGIN UsageFault_IRQn 0 */
  76:app/Src/stm32f1xx_it.c **** 
  77:app/Src/stm32f1xx_it.c ****   /* USER CODE END UsageFault_IRQn 0 */
  78:app/Src/stm32f1xx_it.c ****   while (1)
 126              		.loc 1 78 3 discriminator 1 view .LVU15
  79:app/Src/stm32f1xx_it.c ****   {
  80:app/Src/stm32f1xx_it.c ****     /* USER CODE BEGIN W1_UsageFault_IRQn 0 */
  81:app/Src/stm32f1xx_it.c ****     /* USER CODE END W1_UsageFault_IRQn 0 */
  82:app/Src/stm32f1xx_it.c ****   }
 127              		.loc 1 82 3 discriminator 1 view .LVU16
  78:app/Src/stm32f1xx_it.c ****   {
 128              		.loc 1 78 9 discriminator 1 view .LVU17
 129 0000 FEE7     		b	.L9
 130              		.cfi_endproc
 131              	.LFE403:
 133              		.section	.text.SVC_Handler,"ax",%progbits
 134              		.align	1
 135              		.global	SVC_Handler
 136              		.syntax unified
 137              		.thumb
 138              		.thumb_func
 139              		.fpu softvfp
 141              	SVC_Handler:
 142              	.LFB404:
  83:app/Src/stm32f1xx_it.c **** }
  84:app/Src/stm32f1xx_it.c **** 
  85:app/Src/stm32f1xx_it.c **** /**
  86:app/Src/stm32f1xx_it.c ****   * @brief This function handles System service call via SWI instruction.
  87:app/Src/stm32f1xx_it.c ****   */
  88:app/Src/stm32f1xx_it.c **** void SVC_Handler(void)
  89:app/Src/stm32f1xx_it.c **** {
 143              		.loc 1 89 1 view -0
 144              		.cfi_startproc
 145              		@ args = 0, pretend = 0, frame = 0
 146              		@ frame_needed = 0, uses_anonymous_args = 0
ARM GAS  /tmp/ccRxajMl.s 			page 5


 147              		@ link register save eliminated.
  90:app/Src/stm32f1xx_it.c ****   /* USER CODE BEGIN SVCall_IRQn 0 */
  91:app/Src/stm32f1xx_it.c **** 
  92:app/Src/stm32f1xx_it.c ****   /* USER CODE END SVCall_IRQn 0 */
  93:app/Src/stm32f1xx_it.c ****   /* USER CODE BEGIN SVCall_IRQn 1 */
  94:app/Src/stm32f1xx_it.c **** 
  95:app/Src/stm32f1xx_it.c ****   /* USER CODE END SVCall_IRQn 1 */
  96:app/Src/stm32f1xx_it.c **** }
 148              		.loc 1 96 1 view .LVU19
 149 0000 7047     		bx	lr
 150              		.cfi_endproc
 151              	.LFE404:
 153              		.section	.text.DebugMon_Handler,"ax",%progbits
 154              		.align	1
 155              		.global	DebugMon_Handler
 156              		.syntax unified
 157              		.thumb
 158              		.thumb_func
 159              		.fpu softvfp
 161              	DebugMon_Handler:
 162              	.LFB405:
  97:app/Src/stm32f1xx_it.c **** 
  98:app/Src/stm32f1xx_it.c **** /**
  99:app/Src/stm32f1xx_it.c ****   * @brief This function handles Debug monitor.
 100:app/Src/stm32f1xx_it.c ****   */
 101:app/Src/stm32f1xx_it.c **** void DebugMon_Handler(void)
 102:app/Src/stm32f1xx_it.c **** {
 163              		.loc 1 102 1 view -0
 164              		.cfi_startproc
 165              		@ args = 0, pretend = 0, frame = 0
 166              		@ frame_needed = 0, uses_anonymous_args = 0
 167              		@ link register save eliminated.
 103:app/Src/stm32f1xx_it.c ****   /* USER CODE BEGIN DebugMonitor_IRQn 0 */
 104:app/Src/stm32f1xx_it.c **** 
 105:app/Src/stm32f1xx_it.c ****   /* USER CODE END DebugMonitor_IRQn 0 */
 106:app/Src/stm32f1xx_it.c ****   /* USER CODE BEGIN DebugMonitor_IRQn 1 */
 107:app/Src/stm32f1xx_it.c **** 
 108:app/Src/stm32f1xx_it.c ****   /* USER CODE END DebugMonitor_IRQn 1 */
 109:app/Src/stm32f1xx_it.c **** }
 168              		.loc 1 109 1 view .LVU21
 169 0000 7047     		bx	lr
 170              		.cfi_endproc
 171              	.LFE405:
 173              		.section	.text.PendSV_Handler,"ax",%progbits
 174              		.align	1
 175              		.global	PendSV_Handler
 176              		.syntax unified
 177              		.thumb
 178              		.thumb_func
 179              		.fpu softvfp
 181              	PendSV_Handler:
 182              	.LFB406:
 110:app/Src/stm32f1xx_it.c **** 
 111:app/Src/stm32f1xx_it.c **** /**
 112:app/Src/stm32f1xx_it.c ****   * @brief This function handles Pendable request for system service.
 113:app/Src/stm32f1xx_it.c ****   */
 114:app/Src/stm32f1xx_it.c **** void PendSV_Handler(void)
ARM GAS  /tmp/ccRxajMl.s 			page 6


 115:app/Src/stm32f1xx_it.c **** {
 183              		.loc 1 115 1 view -0
 184              		.cfi_startproc
 185              		@ args = 0, pretend = 0, frame = 0
 186              		@ frame_needed = 0, uses_anonymous_args = 0
 187              		@ link register save eliminated.
 116:app/Src/stm32f1xx_it.c ****   /* USER CODE BEGIN PendSV_IRQn 0 */
 117:app/Src/stm32f1xx_it.c **** 
 118:app/Src/stm32f1xx_it.c ****   /* USER CODE END PendSV_IRQn 0 */
 119:app/Src/stm32f1xx_it.c ****   /* USER CODE BEGIN PendSV_IRQn 1 */
 120:app/Src/stm32f1xx_it.c **** 
 121:app/Src/stm32f1xx_it.c ****   /* USER CODE END PendSV_IRQn 1 */
 122:app/Src/stm32f1xx_it.c **** }
 188              		.loc 1 122 1 view .LVU23
 189 0000 7047     		bx	lr
 190              		.cfi_endproc
 191              	.LFE406:
 193              		.section	.text.SysTick_Handler,"ax",%progbits
 194              		.align	1
 195              		.global	SysTick_Handler
 196              		.syntax unified
 197              		.thumb
 198              		.thumb_func
 199              		.fpu softvfp
 201              	SysTick_Handler:
 202              	.LFB407:
 123:app/Src/stm32f1xx_it.c **** 
 124:app/Src/stm32f1xx_it.c **** /**
 125:app/Src/stm32f1xx_it.c ****   * @brief This function handles System tick timer.
 126:app/Src/stm32f1xx_it.c ****   */
 127:app/Src/stm32f1xx_it.c **** void SysTick_Handler(void)
 128:app/Src/stm32f1xx_it.c **** {
 203              		.loc 1 128 1 view -0
 204              		.cfi_startproc
 205              		@ args = 0, pretend = 0, frame = 0
 206              		@ frame_needed = 0, uses_anonymous_args = 0
 207 0000 08B5     		push	{r3, lr}
 208              	.LCFI0:
 209              		.cfi_def_cfa_offset 8
 210              		.cfi_offset 3, -8
 211              		.cfi_offset 14, -4
 129:app/Src/stm32f1xx_it.c **** 
 130:app/Src/stm32f1xx_it.c ****   HAL_IncTick();
 212              		.loc 1 130 3 view .LVU25
 213 0002 FFF7FEFF 		bl	HAL_IncTick
 214              	.LVL0:
 131:app/Src/stm32f1xx_it.c ****   // if(HAL_GetTick() - scanfcnt > 500L)        //get power task
 132:app/Src/stm32f1xx_it.c ****   // { 
 133:app/Src/stm32f1xx_it.c ****   //   scanfcnt = HAL_GetTick();
 134:app/Src/stm32f1xx_it.c ****   // }
 135:app/Src/stm32f1xx_it.c **** }
 215              		.loc 1 135 1 is_stmt 0 view .LVU26
 216 0006 08BD     		pop	{r3, pc}
 217              		.cfi_endproc
 218              	.LFE407:
 220              		.section	.text.TIM3_IRQHandler,"ax",%progbits
 221              		.align	1
ARM GAS  /tmp/ccRxajMl.s 			page 7


 222              		.global	TIM3_IRQHandler
 223              		.syntax unified
 224              		.thumb
 225              		.thumb_func
 226              		.fpu softvfp
 228              	TIM3_IRQHandler:
 229              	.LFB408:
 136:app/Src/stm32f1xx_it.c **** 
 137:app/Src/stm32f1xx_it.c **** /******************************************************************************/
 138:app/Src/stm32f1xx_it.c **** /* STM32F1xx Peripheral Interrupt Handlers                                    */
 139:app/Src/stm32f1xx_it.c **** /* Add here the Interrupt Handlers for the used peripherals.                  */
 140:app/Src/stm32f1xx_it.c **** /* For the available peripheral interrupt handler names,                      */
 141:app/Src/stm32f1xx_it.c **** /* please refer to the startup file (startup_stm32f1xx.s).                    */
 142:app/Src/stm32f1xx_it.c **** /******************************************************************************/
 143:app/Src/stm32f1xx_it.c **** 
 144:app/Src/stm32f1xx_it.c **** /**
 145:app/Src/stm32f1xx_it.c ****   * @brief This function handles TIM3 global interrupt.
 146:app/Src/stm32f1xx_it.c ****   */
 147:app/Src/stm32f1xx_it.c **** void TIM3_IRQHandler(void)
 148:app/Src/stm32f1xx_it.c **** {
 230              		.loc 1 148 1 is_stmt 1 view -0
 231              		.cfi_startproc
 232              		@ args = 0, pretend = 0, frame = 0
 233              		@ frame_needed = 0, uses_anonymous_args = 0
 234 0000 08B5     		push	{r3, lr}
 235              	.LCFI1:
 236              		.cfi_def_cfa_offset 8
 237              		.cfi_offset 3, -8
 238              		.cfi_offset 14, -4
 149:app/Src/stm32f1xx_it.c ****  /* USER CODE BEGIN TIM3_IRQn 0 */
 150:app/Src/stm32f1xx_it.c **** 
 151:app/Src/stm32f1xx_it.c ****  /* USER CODE END TIM3_IRQn 0 */
 152:app/Src/stm32f1xx_it.c ****  HAL_TIM_IRQHandler(&htim3);
 239              		.loc 1 152 2 view .LVU28
 240 0002 0248     		ldr	r0, .L17
 241 0004 FFF7FEFF 		bl	HAL_TIM_IRQHandler
 242              	.LVL1:
 153:app/Src/stm32f1xx_it.c ****  /* USER CODE BEGIN TIM3_IRQn 1 */
 154:app/Src/stm32f1xx_it.c **** 
 155:app/Src/stm32f1xx_it.c ****  /* USER CODE END TIM3_IRQn 1 */
 156:app/Src/stm32f1xx_it.c **** }
 243              		.loc 1 156 1 is_stmt 0 view .LVU29
 244 0008 08BD     		pop	{r3, pc}
 245              	.L18:
 246 000a 00BF     		.align	2
 247              	.L17:
 248 000c 00000000 		.word	htim3
 249              		.cfi_endproc
 250              	.LFE408:
 252              		.section	.text.USART1_IRQHandler,"ax",%progbits
 253              		.align	1
 254              		.global	USART1_IRQHandler
 255              		.syntax unified
 256              		.thumb
 257              		.thumb_func
 258              		.fpu softvfp
 260              	USART1_IRQHandler:
ARM GAS  /tmp/ccRxajMl.s 			page 8


 261              	.LFB409:
 157:app/Src/stm32f1xx_it.c **** 
 158:app/Src/stm32f1xx_it.c **** 
 159:app/Src/stm32f1xx_it.c **** /**
 160:app/Src/stm32f1xx_it.c ****   * @brief This function handles USART1 global interrupt.
 161:app/Src/stm32f1xx_it.c ****   */
 162:app/Src/stm32f1xx_it.c **** void USART1_IRQHandler(void)
 163:app/Src/stm32f1xx_it.c **** {
 262              		.loc 1 163 1 is_stmt 1 view -0
 263              		.cfi_startproc
 264              		@ args = 0, pretend = 0, frame = 0
 265              		@ frame_needed = 0, uses_anonymous_args = 0
 266 0000 08B5     		push	{r3, lr}
 267              	.LCFI2:
 268              		.cfi_def_cfa_offset 8
 269              		.cfi_offset 3, -8
 270              		.cfi_offset 14, -4
 164:app/Src/stm32f1xx_it.c ****   /* USER CODE BEGIN USART1_IRQn 0 */
 165:app/Src/stm32f1xx_it.c **** 
 166:app/Src/stm32f1xx_it.c ****   /* USER CODE END USART1_IRQn 0 */
 167:app/Src/stm32f1xx_it.c ****   HAL_UART_IRQHandler(&huart1);
 271              		.loc 1 167 3 view .LVU31
 272 0002 0248     		ldr	r0, .L21
 273 0004 FFF7FEFF 		bl	HAL_UART_IRQHandler
 274              	.LVL2:
 168:app/Src/stm32f1xx_it.c ****   /* USER CODE BEGIN USART1_IRQn 1 */
 169:app/Src/stm32f1xx_it.c **** 
 170:app/Src/stm32f1xx_it.c ****   /* USER CODE END USART1_IRQn 1 */
 171:app/Src/stm32f1xx_it.c **** }
 275              		.loc 1 171 1 is_stmt 0 view .LVU32
 276 0008 08BD     		pop	{r3, pc}
 277              	.L22:
 278 000a 00BF     		.align	2
 279              	.L21:
 280 000c 00000000 		.word	huart1
 281              		.cfi_endproc
 282              	.LFE409:
 284              		.section	.text.RTC_IRQHandler,"ax",%progbits
 285              		.align	1
 286              		.global	RTC_IRQHandler
 287              		.syntax unified
 288              		.thumb
 289              		.thumb_func
 290              		.fpu softvfp
 292              	RTC_IRQHandler:
 293              	.LFB410:
 172:app/Src/stm32f1xx_it.c **** 
 173:app/Src/stm32f1xx_it.c **** 
 174:app/Src/stm32f1xx_it.c **** void RTC_IRQHandler(void)
 175:app/Src/stm32f1xx_it.c **** {
 294              		.loc 1 175 1 is_stmt 1 view -0
 295              		.cfi_startproc
 296              		@ args = 0, pretend = 0, frame = 0
 297              		@ frame_needed = 0, uses_anonymous_args = 0
 298 0000 08B5     		push	{r3, lr}
 299              	.LCFI3:
 300              		.cfi_def_cfa_offset 8
ARM GAS  /tmp/ccRxajMl.s 			page 9


 301              		.cfi_offset 3, -8
 302              		.cfi_offset 14, -4
 176:app/Src/stm32f1xx_it.c ****   /* USER CODE BEGIN RTC_IRQn 0 */
 177:app/Src/stm32f1xx_it.c **** 
 178:app/Src/stm32f1xx_it.c ****   /* USER CODE END RTC_IRQn 0 */
 179:app/Src/stm32f1xx_it.c ****   HAL_RTCEx_RTCIRQHandler(&hRTC);
 303              		.loc 1 179 3 view .LVU34
 304 0002 0248     		ldr	r0, .L25
 305 0004 FFF7FEFF 		bl	HAL_RTCEx_RTCIRQHandler
 306              	.LVL3:
 180:app/Src/stm32f1xx_it.c ****   /* USER CODE BEGIN RTC_IRQn 1 */
 181:app/Src/stm32f1xx_it.c **** 
 182:app/Src/stm32f1xx_it.c ****   /* USER CODE END RTC_IRQn 1 */
 183:app/Src/stm32f1xx_it.c **** }
 307              		.loc 1 183 1 is_stmt 0 view .LVU35
 308 0008 08BD     		pop	{r3, pc}
 309              	.L26:
 310 000a 00BF     		.align	2
 311              	.L25:
 312 000c 00000000 		.word	hRTC
 313              		.cfi_endproc
 314              	.LFE410:
 316              		.global	scanfcnt
 317              		.section	.bss.scanfcnt,"aw",%nobits
 318              		.align	2
 321              	scanfcnt:
 322 0000 00000000 		.space	4
 323              		.text
 324              	.Letext0:
 325              		.file 2 "/home/yhf/toolchains/gcc-arm-none-eabi-9-2020-q2-update/arm-none-eabi/include/machine/_de
 326              		.file 3 "/home/yhf/toolchains/gcc-arm-none-eabi-9-2020-q2-update/arm-none-eabi/include/sys/_stdint
 327              		.file 4 "Drivers/CMSIS/Include/core_cm3.h"
 328              		.file 5 "Drivers/CMSIS/Device/ST/STM32F1xx/Include/system_stm32f1xx.h"
 329              		.file 6 "Drivers/CMSIS/Device/ST/STM32F1xx/Include/stm32f103xb.h"
 330              		.file 7 "/home/yhf/toolchains/gcc-arm-none-eabi-9-2020-q2-update/lib/gcc/arm-none-eabi/9.3.1/inclu
 331              		.file 8 "/home/yhf/toolchains/gcc-arm-none-eabi-9-2020-q2-update/arm-none-eabi/include/sys/_types.
 332              		.file 9 "/home/yhf/toolchains/gcc-arm-none-eabi-9-2020-q2-update/arm-none-eabi/include/sys/reent.h
 333              		.file 10 "/home/yhf/toolchains/gcc-arm-none-eabi-9-2020-q2-update/arm-none-eabi/include/sys/lock.h
 334              		.file 11 "Drivers/STM32F1xx_HAL_Driver/Inc/stm32f1xx_hal_def.h"
 335              		.file 12 "Drivers/STM32F1xx_HAL_Driver/Inc/stm32f1xx_hal_dma.h"
 336              		.file 13 "Drivers/STM32F1xx_HAL_Driver/Inc/stm32f1xx_hal_rtc.h"
 337              		.file 14 "Drivers/STM32F1xx_HAL_Driver/Inc/stm32f1xx_hal_tim.h"
 338              		.file 15 "Drivers/STM32F1xx_HAL_Driver/Inc/stm32f1xx_hal_uart.h"
 339              		.file 16 "Drivers/STM32F1xx_HAL_Driver/Inc/stm32f1xx_hal.h"
 340              		.file 17 "component/lcd/lcd.h"
 341              		.file 18 "component/rtc/rtc.h"
 342              		.file 19 "Drivers/STM32F1xx_HAL_Driver/Inc/stm32f1xx_hal_rtc_ex.h"
 343              		.file 20 "Drivers/STM32F1xx_HAL_Driver/Inc/stm32f1xx_ll_dma.h"
ARM GAS  /tmp/ccRxajMl.s 			page 10

